Certificate:
    Data:
        Version: 3 (0x2)
        Serial Number: 7 (0x7)
        Signature Algorithm: sha256WithRSAEncryption
        Issuer: C=KG, ST=NA, L=BISHKEK, O=OpenVPN-TEST/emailAddress=me@myhost.mydomain
        Validity
            Not Before: Nov  7 12:23:40 2023 GMT
            Not After : Nov  4 12:23:40 2033 GMT
        Subject: C=KG, ST=NA, O=OpenVPN-TEST, CN=Test-Client-EC/emailAddress=me@myhost.mydomain
        Subject Public Key Info:
            Public Key Algorithm: id-ecPublicKey
                Public-Key: (256 bit)
                pub:
                    04:25:bd:3e:da:c5:cd:35:c0:44:d5:82:11:77:7a:
                    24:12:1e:40:53:7a:ff:0d:0c:67:05:94:ce:5d:44:
                    26:51:9b:0c:57:b1:38:30:9d:bd:13:03:59:12:0e:
                    c8:35:5c:ca:b6:d1:81:41:9d:ac:9f:ec:2b:58:07:
                    29:6d:d3:5f:5c
                ASN1 OID: secp256k1
        X509v3 extensions:
            X509v3 Basic Constraints:
                CA:FALSE
            X509v3 Subject Key Identifier:
                D4:76:DB:EC:D0:11:63:0E:FE:BA:4E:10:76:22:07:D7:99:02:DE:F6
            X509v3 Authority Key Identifier:
                keyid:73:B1:B8:D6:8A:95:6B:12:E0:74:7C:C5:57:55:98:94:5B:AC:78:5E
                DirName:/C=KG/ST=NA/L=BISHKEK/O=OpenVPN-TEST/emailAddress=me@myhost.mydomain
                serial:6F:50:B8:D3:46:6E:72:34:59:BC:00:33:DD:7C:AE:12:EB:27:46:06
    Signature Algorithm: sha256WithRSAEncryption
    Signature Value:
        72:fd:18:d4:c2:0f:ba:6f:94:f2:f9:26:8b:93:fb:d5:99:df:
        f7:aa:e6:27:f2:89:86:ff:6d:0a:24:ea:ae:d4:68:7b:08:38:
        8a:7a:f9:a2:4d:e5:fe:2e:e1:bb:09:8c:2d:df:85:7b:01:dd:
        58:4b:15:2a:db:49:10:ab:f1:78:49:fb:94:b3:31:e3:09:e0:
        63:3c:d0:f2:34:18:de:37:0a:2d:d3:02:d5:ae:05:49:57:e7:
        47:d0:70:3f:f1:35:28:82:79:00:b3:c8:45:00:86:77:d7:68:
        63:d2:3d:8b:ef:a9:f8:99:97:fe:d0:0a:98:cb:7a:7b:73:28:
        77:f4:bb:cf:1c:63:7e:64:60:87:f7:51:68:e9:7a:90:70:d8:
        a0:e2:c6:88:70:62:2c:49:ac:ba:8c:2e:c5:d7:c9:42:8b:44:
        cc:ae:f3:40:79:1c:99:09:2c:4c:24:89:55:41:ce:c6:52:a9:
        a3:b7:4c:e6:75:63:4f:b6:70:84:1b:3e:56:f5:42:5f:b1:50:
        46:eb:33:41:28:f8:30:f6:f9:f9:c0:5d:9b:a4:af:8e:03:c8:
        3e:88:66:04:2e:5b:ec:50:36:a8:d1:9f:8e:e0:59:40:bb:f8:
        ff:45:7d:40:2e:6d:f0:e8:84:5b:db:7e:0d:88:b3:a2:f6:34:
        5b:b9:a1:1d:a0:fa:85:78:3b:9b:b3:0b:6c:f1:03:06:9c:f1:
        e3:ba:64:a3:5c:d8:c8:d5:73:4a:3f:4d:83:aa:e8:c4:ce:dd:
        92:23:b2:c8:ab:e5:39:93:d9:d7:ca:70:c2:ff:8f:71:40:f6:
        c4:89:4a:72:0b:2a:7a:20:15:5b:a4:e9:75:a0:df:93:2b:7d:
        1a:54:39:2c:80:4f:21:32:5f:9f:d8:96:08:2f:dc:e2:45:1f:
        96:e9:31:84:90:2e:1d:07:92:56:a8:22:49:25:1b:bf:47:d5:
        fa:34:e9:cc:7c:b2:18:ca:5e:d6:76:5e:b6:19:72:c0:10:d6:
        c2:c6:f1:03:d4:0e:62:28:d8:56:e1:08:3a:f4:54:8f:7b:0d:
        a5:62:53:8a:72:7b:2f:fa:80:8a:3a:54:4d:11:5c:58:7e:fc:
        15:30:9b:fe:ef:35:a1:00:c0:15:0f:47:14:af:09:9f:1e:dd:
        7a:ed:ea:2b:c8:a1:51:26:a3:d1:25:8c:31:1b:41:30:27:ca:
        e8:3f:00:2b:83:8f:b4:f8:11:30:71:b8:4c:d8:af:48:88:aa:
        e5:96:3e:f8:01:a9:17:b6:f2:09:27:d0:e9:b3:b3:89:b2:0f:
        f7:c5:78:b3:b2:e1:26:a2:78:2b:4c:9d:99:57:4f:7e:fa:fe:
        9b:ae:6f:c4:6a:b1:7c:d0
-----BEGIN CERTIFICATE-----
MIIEVDCCAjygAwIBAgIBBzANBgkqhkiG9w0BAQsFADBmMQswCQYDVQQGEwJLRzEL
MAkGA1UECAwCTkExEDAOBgNVBAcMB0JJU0hLRUsxFTATBgNVBAoMDE9wZW5WUE4t
VEVTVDEhMB8GCSqGSIb3DQEJARYSbWVAbXlob3N0Lm15ZG9tYWluMB4XDTIzMTEw
NzEyMjM0MFoXDTMzMTEwNDEyMjM0MFowbTELMAkGA1UEBhMCS0cxCzAJBgNVBAgM
Ak5BMRUwEwYDVQQKDAxPcGVuVlBOLVRFU1QxFzAVBgNVBAMMDlRlc3QtQ2xpZW50
LUVDMSEwHwYJKoZIhvcNAQkBFhJtZUBteWhvc3QubXlkb21haW4wVjAQBgcqhkjO
PQIBBgUrgQQACgNCAAQlvT7axc01wETVghF3eiQSHkBTev8NDGcFlM5dRCZRmwxX
sTgwnb0TA1kSDsg1XMq20YFBnayf7CtYBylt019co4HTMIHQMAkGA1UdEwQCMAAw
HQYDVR0OBBYEFNR22+zQEWMO/rpOEHYiB9eZAt72MIGjBgNVHSMEgZswgZiAFHOx
uNaKlWsS4HR8xVdVmJRbrHheoWqkaDBmMQswCQYDVQQGEwJLRzELMAkGA1UECAwC
TkExEDAOBgNVBAcMB0JJU0hLRUsxFTATBgNVBAoMDE9wZW5WUE4tVEVTVDEhMB8G
CSqGSIb3DQEJARYSbWVAbXlob3N0Lm15ZG9tYWlughRvULjTRm5yNFm8ADPdfK4S
6ydGBjANBgkqhkiG9w0BAQsFAAOCAgEAcv0Y1MIPum+U8vkmi5P71Znf96rmJ/KJ
hv9tCiTqrtRoewg4inr5ok3l/i7huwmMLd+FewHdWEsVKttJEKvxeEn7lLMx4wng
YzzQ8jQY3jcKLdMC1a4FSVfnR9BwP/E1KIJ5ALPIRQCGd9doY9I9i++p+JmX/tAK
mMt6e3Mod/S7zxxjfmRgh/dRaOl6kHDYoOLGiHBiLEmsuowuxdfJQotEzK7zQHkc
mQksTCSJVUHOxlKpo7dM5nVjT7ZwhBs+VvVCX7FQRuszQSj4MPb5+cBdm6SvjgPI
PohmBC5b7FA2qNGfjuBZQLv4/0V9QC5t8OiEW9t+DYizovY0W7mhHaD6hXg7m7ML
bPEDBpzx47pko1zYyNVzSj9Ng6roxM7dkiOyyKvlOZPZ18pwwv+PcUD2xIlKcgsq
eiAVW6TpdaDfkyt9GlQ5LIBPITJfn9iWCC/c4kUflukxhJAuHQeSVqgiSSUbv0fV
+jTpzHyyGMpe1nZethlywBDWwsbxA9QOYijYVuEIOvRUj3sNpWJTinJ7L/qAijpU
TRFcWH78FTCb/u81oQDAFQ9HFK8Jnx7deu3qK8ihUSaj0SWMMRtBMCfK6D8AK4OP
tPgRMHG4TNivSIiq5ZY++AGpF7byCSfQ6bOzibIP98V4s7LhJqJ4K0ydmVdPfvr+
m65vxGqxfNA=
-----END CERTIFICATE-----
