Certificate:
    Data:
        Version: 3 (0x2)
        Serial Number: 2 (0x2)
    Signature Algorithm: sha256WithRSAEncryption
        Issuer: C=KG, ST=NA, L=BISHKEK, O=OpenVPN-TEST/emailAddress=me@myhost.mydomain
        Validity
            Not Before: Oct 22 21:59:53 2014 GMT
            Not After : Oct 19 21:59:53 2024 GMT
        Subject: C=KG, ST=NA, O=OpenVPN-TEST, CN=Test-Client/emailAddress=me@myhost.mydomain
        Subject Public Key Info:
            Public Key Algorithm: rsaEncryption
                Public-Key: (2048 bit)
                Modulus:
                    00:ec:65:8f:e9:12:c2:1a:5b:e6:56:2a:08:a9:82:
                    3a:2d:44:78:a3:00:3b:b0:9f:e7:27:10:40:93:ef:
                    f1:cc:3e:a0:aa:04:a2:80:1b:13:a9:e6:fe:81:d6:
                    70:90:a8:d8:d4:de:30:d8:35:00:d2:be:62:f0:48:
                    da:fc:15:8d:c4:c6:6d:0b:99:f1:2b:83:00:0a:d3:
                    2a:23:0b:e5:cd:f9:35:df:43:61:15:72:ad:95:98:
                    f6:73:21:41:5e:a0:dd:47:27:a0:d5:9a:d4:41:a8:
                    1c:1d:57:20:71:17:8f:f7:28:9e:3e:07:ce:ec:d5:
                    0e:42:4f:1e:74:47:8e:47:9d:d2:14:28:27:2c:14:
                    10:f5:d1:96:b5:93:74:84:ef:f9:04:de:8d:4a:6f:
                    df:77:ab:ea:d1:58:d3:44:fe:5a:04:01:ff:06:7a:
                    97:f7:fd:e3:57:48:e1:f0:df:40:13:9f:66:23:5a:
                    e3:55:54:3d:54:39:ee:00:f9:12:f1:d2:df:74:2e:
                    ba:d7:f0:8d:c6:dd:18:58:1c:93:22:0b:75:fa:a8:
                    d6:e0:b5:2f:2d:b9:d4:fe:b9:4f:86:e2:75:48:16:
                    60:fb:3f:c9:b4:30:42:29:fb:3b:b3:2b:b9:59:81:
                    6a:46:f3:45:83:bf:fd:d5:1a:ff:37:0c:6f:5b:fd:
                    61:f1
                Exponent: 65537 (0x10001)
        X509v3 extensions:
            X509v3 Basic Constraints: 
                CA:FALSE
            X509v3 Subject Key Identifier: 
                D2:B4:36:0F:B1:FC:DD:A5:EA:2A:F7:C7:23:89:FA:E3:FA:7A:44:1D
            X509v3 Authority Key Identifier: 
                keyid:2B:40:E5:C9:7D:F5:F4:96:38:E9:2F:E3:2F:D9:40:64:C9:8E:05:9B
                DirName:/C=KG/ST=NA/L=BISHKEK/O=OpenVPN-TEST/emailAddress=me@myhost.mydomain
                serial:A1:4E:DE:FA:90:F2:AE:81

    Signature Algorithm: sha256WithRSAEncryption
         7f:e0:fe:84:a7:ec:df:62:a5:cd:3c:c1:e6:42:b1:31:12:f0:
         b9:da:a7:9e:3f:bd:96:52:b6:fc:55:74:64:3e:e4:ff:7e:aa:
         f7:3e:06:18:5f:73:85:f8:c8:e0:67:1b:4d:97:ca:05:d0:37:
         07:33:64:9b:e6:78:77:14:9a:55:bb:2a:ac:c3:7f:c9:15:08:
         83:5c:c8:c2:61:d3:71:4c:05:0b:2b:cb:a3:87:6d:a0:32:ed:
         b0:b3:27:97:4a:55:8d:01:2a:30:56:68:ab:f2:da:5c:10:73:
         c9:aa:0a:9c:4b:4c:a0:5b:51:6e:0a:7e:6c:53:80:b0:00:e1:
         1e:9a:4c:0a:37:9e:20:89:bc:c5:e5:79:58:b7:45:ff:d3:c4:
         a1:fd:d9:78:3d:45:16:74:df:82:44:1d:1d:81:50:5a:b9:32:
         4c:e2:4f:3f:0e:3a:65:5a:64:83:3b:29:31:c4:99:88:bc:c5:
         84:39:f2:19:12:e1:66:d0:ea:fb:75:b1:d2:27:be:91:59:a3:
         2b:09:d5:5c:bf:46:8e:d6:67:d6:0b:ec:da:ab:f0:80:19:87:
         64:07:a9:77:b1:5e:0c:e2:c5:1d:6a:ac:5d:23:f3:30:75:36:
         4e:ca:c3:4e:b0:4d:8c:2c:ce:52:61:63:de:d5:f5:ef:ef:0a:
         6b:23:25:26:3c:3a:f2:c3:c2:16:19:3f:a9:32:ba:68:f9:c9:
         12:3c:3e:c6:1f:ff:9b:4e:f4:90:b0:63:f5:d1:33:00:30:5a:
         e8:24:fa:35:44:9b:6a:80:f3:a6:cc:7b:3c:73:5f:50:c4:30:
         71:d8:74:90:27:0a:01:4e:a5:5e:b1:f8:da:c2:61:81:11:ae:
         29:a3:8f:fa:7e:4c:4e:62:b1:00:de:92:e3:8f:6a:2e:da:d9:
         38:5d:6b:7c:0d:e4:01:aa:c8:c6:6d:8b:cd:c0:c8:6e:e4:57:
         21:8a:f6:46:30:d9:ad:51:a1:87:96:a6:53:c9:1e:c6:bb:c3:
         eb:55:fe:8c:d6:5c:d5:c6:f3:ca:b0:60:d2:d4:2a:1f:88:94:
         d3:4c:1a:da:0c:94:fe:c1:5d:0d:2a:db:99:29:5d:f6:dd:16:
         c4:c8:4d:74:9e:80:d9:d0:aa:ed:7b:e3:30:e4:47:d8:f5:15:
         c1:71:b8:c6:fd:ee:fc:9e:b2:5f:b5:b7:92:ed:ff:ca:37:f6:
         c7:82:b4:54:13:9b:83:cd:87:8b:7e:64:f6:2e:54:3a:22:b1:
         c5:c1:f4:a5:25:53:9a:4d:a8:0f:e7:35:4b:89:df:19:83:66:
         64:d9:db:d1:61:2b:24:1b:1d:44:44:fb:49:30:87:b7:49:23:
         08:02:8a:e0:25:f3:f4:43
-----BEGIN CERTIFICATE-----
MIIFFDCCAvygAwIBAgIBAjANBgkqhkiG9w0BAQsFADBmMQswCQYDVQQGEwJLRzEL
MAkGA1UECBMCTkExEDAOBgNVBAcTB0JJU0hLRUsxFTATBgNVBAoTDE9wZW5WUE4t
VEVTVDEhMB8GCSqGSIb3DQEJARYSbWVAbXlob3N0Lm15ZG9tYWluMB4XDTE0MTAy
MjIxNTk1M1oXDTI0MTAxOTIxNTk1M1owajELMAkGA1UEBhMCS0cxCzAJBgNVBAgT
Ak5BMRUwEwYDVQQKEwxPcGVuVlBOLVRFU1QxFDASBgNVBAMTC1Rlc3QtQ2xpZW50
MSEwHwYJKoZIhvcNAQkBFhJtZUBteWhvc3QubXlkb21haW4wggEiMA0GCSqGSIb3
DQEBAQUAA4IBDwAwggEKAoIBAQDsZY/pEsIaW+ZWKgipgjotRHijADuwn+cnEECT
7/HMPqCqBKKAGxOp5v6B1nCQqNjU3jDYNQDSvmLwSNr8FY3Exm0LmfErgwAK0yoj
C+XN+TXfQ2EVcq2VmPZzIUFeoN1HJ6DVmtRBqBwdVyBxF4/3KJ4+B87s1Q5CTx50
R45HndIUKCcsFBD10Za1k3SE7/kE3o1Kb993q+rRWNNE/loEAf8Gepf3/eNXSOHw
30ATn2YjWuNVVD1UOe4A+RLx0t90LrrX8I3G3RhYHJMiC3X6qNbgtS8tudT+uU+G
4nVIFmD7P8m0MEIp+zuzK7lZgWpG80WDv/3VGv83DG9b/WHxAgMBAAGjgcgwgcUw
CQYDVR0TBAIwADAdBgNVHQ4EFgQU0rQ2D7H83aXqKvfHI4n64/p6RB0wgZgGA1Ud
IwSBkDCBjYAUK0DlyX319JY46S/jL9lAZMmOBZuhaqRoMGYxCzAJBgNVBAYTAktH
MQswCQYDVQQIEwJOQTEQMA4GA1UEBxMHQklTSEtFSzEVMBMGA1UEChMMT3BlblZQ
Ti1URVNUMSEwHwYJKoZIhvcNAQkBFhJtZUBteWhvc3QubXlkb21haW6CCQChTt76
kPKugTANBgkqhkiG9w0BAQsFAAOCAgEAf+D+hKfs32KlzTzB5kKxMRLwudqnnj+9
llK2/FV0ZD7k/36q9z4GGF9zhfjI4GcbTZfKBdA3BzNkm+Z4dxSaVbsqrMN/yRUI
g1zIwmHTcUwFCyvLo4dtoDLtsLMnl0pVjQEqMFZoq/LaXBBzyaoKnEtMoFtRbgp+
bFOAsADhHppMCjeeIIm8xeV5WLdF/9PEof3ZeD1FFnTfgkQdHYFQWrkyTOJPPw46
ZVpkgzspMcSZiLzFhDnyGRLhZtDq+3Wx0ie+kVmjKwnVXL9GjtZn1gvs2qvwgBmH
ZAepd7FeDOLFHWqsXSPzMHU2TsrDTrBNjCzOUmFj3tX17+8KayMlJjw68sPCFhk/
qTK6aPnJEjw+xh//m070kLBj9dEzADBa6CT6NUSbaoDzpsx7PHNfUMQwcdh0kCcK
AU6lXrH42sJhgRGuKaOP+n5MTmKxAN6S449qLtrZOF1rfA3kAarIxm2LzcDIbuRX
IYr2RjDZrVGhh5amU8kexrvD61X+jNZc1cbzyrBg0tQqH4iU00wa2gyU/sFdDSrb
mSld9t0WxMhNdJ6A2dCq7XvjMORH2PUVwXG4xv3u/J6yX7W3ku3/yjf2x4K0VBOb
g82Hi35k9i5UOiKxxcH0pSVTmk2oD+c1S4nfGYNmZNnb0WErJBsdRET7STCHt0kj
CAKK4CXz9EM=
-----END CERTIFICATE-----
