Certificate:
    Data:
        Version: 3 (0x2)
        Serial Number: 1 (0x1)
        Signature Algorithm: sha256WithRSAEncryption
        Issuer: C=KG, ST=NA, L=BISHKEK, O=OpenVPN-TEST/emailAddress=me@myhost.mydomain
        Validity
            Not Before: Nov  7 12:23:39 2023 GMT
            Not After : Nov  4 12:23:39 2033 GMT
        Subject: C=KG, ST=NA, O=OpenVPN-TEST, CN=Test-Server/emailAddress=me@myhost.mydomain
        Subject Public Key Info:
            Public Key Algorithm: rsaEncryption
                Public-Key: (2048 bit)
                Modulus:
                    00:af:93:ce:9d:86:87:c4:8a:bb:38:6f:50:16:9b:
                    29:70:da:5a:bd:b3:4c:5a:03:b8:e1:94:f5:3f:4b:
                    3f:1b:05:ea:77:9e:34:59:01:99:de:81:e2:87:3a:
                    d4:05:18:40:26:7f:a3:e9:82:52:bc:32:84:32:b9:
                    3c:61:1f:68:5a:89:01:17:21:ec:b9:33:5b:96:33:
                    16:91:0f:36:af:c3:0f:68:10:44:ea:e6:f9:00:35:
                    13:61:3d:e7:a0:b1:4b:91:31:b8:11:02:a0:98:cd:
                    fd:aa:e7:53:6c:31:05:87:36:56:c5:e4:8c:12:96:
                    d6:f0:c4:5a:a7:0d:96:5f:f6:7a:95:ad:58:e5:6d:
                    86:54:75:ea:da:aa:fd:1d:0c:38:19:6a:a6:24:c6:
                    25:60:73:c4:a9:86:51:af:f6:52:45:48:f1:96:16:
                    8e:19:ff:3f:ce:7b:d1:96:f6:2c:75:12:16:90:27:
                    78:27:09:0a:77:a0:d8:6e:64:b0:09:94:7c:95:81:
                    76:a7:c3:be:7d:5a:0c:5a:e4:2d:d2:15:6d:00:bb:
                    83:a6:ac:35:dc:1e:f7:f5:67:ac:2f:70:07:fd:94:
                    d9:b1:da:f4:8f:64:67:92:f1:f1:a8:72:27:dd:5c:
                    d4:f1:38:ab:76:b8:4e:38:26:d4:4c:d9:87:4c:42:
                    63:d5
                Exponent: 65537 (0x10001)
        X509v3 extensions:
            X509v3 Basic Constraints: 
                CA:FALSE
            Netscape Cert Type: 
                SSL Server
            Netscape Comment: 
                OpenSSL Generated Server Certificate
            X509v3 Subject Key Identifier: 
                18:B9:E7:B1:3E:D2:87:C4:78:2C:0D:D9:BB:7E:BE:68:B3:FC:6A:2B
            X509v3 Authority Key Identifier: 
                keyid:73:B1:B8:D6:8A:95:6B:12:E0:74:7C:C5:57:55:98:94:5B:AC:78:5E
                DirName:/C=KG/ST=NA/L=BISHKEK/O=OpenVPN-TEST/emailAddress=me@myhost.mydomain
                serial:6F:50:B8:D3:46:6E:72:34:59:BC:00:33:DD:7C:AE:12:EB:27:46:06
            X509v3 Extended Key Usage:
                TLS Web Server Authentication
            X509v3 Key Usage:
                Digital Signature, Key Encipherment
    Signature Algorithm: sha256WithRSAEncryption
    Signature Value:
        1d:e9:04:bc:77:22:d9:70:59:aa:d2:f4:4b:5b:8c:8c:6d:b8:
        7d:0d:aa:0f:db:75:11:23:72:3a:95:34:33:63:95:16:f1:04:
        61:95:8e:3f:36:4d:b7:28:a6:f2:ed:c8:89:8f:7f:05:65:83:
        13:5d:42:ea:2c:1d:a8:79:25:ec:7c:19:6f:51:f2:b0:d0:19:
        6a:db:14:ae:e4:69:91:d8:47:78:5a:d2:06:ce:fd:8f:d5:1d:
        78:ae:86:2e:5a:f4:ef:db:05:3d:fc:12:9f:fb:76:60:60:bc:
        2a:a0:89:50:ea:d8:1b:89:aa:5b:f5:3b:e7:af:3f:dc:ae:6e:
        bd:5c:7e:63:52:2e:c9:6d:8f:e2:a0:fe:5d:ab:b1:dc:09:39:
        3b:14:a0:ee:8a:a1:7d:ce:00:a2:9f:8a:b9:f2:67:71:e1:40:
        9e:d7:c8:92:8f:a2:38:e5:8f:bc:5b:00:ab:92:2f:c5:21:83:
        05:c7:ff:7a:84:39:99:e7:00:cb:28:2e:51:b8:e8:3e:90:84:
        f2:d3:6a:67:b3:74:fd:e6:3f:53:b5:4a:08:6f:ed:0f:c2:81:
        9a:eb:13:26:c1:15:1d:f3:21:51:39:56:76:55:8c:6d:79:6b:
        5e:19:46:f2:19:2c:47:4f:2d:53:39:45:b5:50:6e:c4:1a:b6:
        0e:9a:04:92:e9:7b:9d:d5:d7:2d:f3:30:5d:04:ce:24:93:75:
        5c:35:51:77:e7:74:dd:97:05:bd:06:8a:a2:b2:8e:6c:74:e5:
        9e:13:10:7e:37:b2:47:72:a0:be:b3:2f:ec:61:09:28:76:b8:
        a1:85:28:ae:32:a7:b5:57:86:2c:d9:cd:26:f7:47:cc:92:48:
        7d:06:ce:30:db:bc:23:fe:88:9c:75:50:7c:c0:f1:96:53:54:
        34:b7:0c:a4:3a:66:12:ea:51:7f:ad:c7:4e:ed:98:8f:3d:c7:
        ba:29:cd:4b:e9:e0:ce:54:a3:b0:51:d7:00:26:bb:b4:86:f6:
        d0:76:51:9d:53:cb:52:94:e0:36:a6:9f:10:cb:79:92:4c:17:
        cf:f2:9e:66:75:06:96:38:c1:f8:7c:22:1b:8e:53:01:bc:af:
        86:7f:e0:02:f1:14:e2:cb:4b:94:f5:a7:c4:e3:d5:39:83:18:
        2d:aa:ff:82:b4:da:0a:1b:5d:72:66:0d:c3:a6:7a:8a:2d:89:
        db:e7:ea:2f:2a:ec:eb:4c:0a:2c:b1:41:1c:8d:7c:cb:78:6a:
        a7:c5:e7:0b:7a:bf:44:de:24:02:72:da:88:77:40:5e:13:b0:
        55:28:b5:31:1a:f9:43:79:2c:a1:fa:7d:9a:c8:7a:fe:c2:27:
        e4:47:02:40:b6:d2:3d:35
-----BEGIN CERTIFICATE-----
MIIFizCCA3OgAwIBAgIBATANBgkqhkiG9w0BAQsFADBmMQswCQYDVQQGEwJLRzEL
MAkGA1UECAwCTkExEDAOBgNVBAcMB0JJU0hLRUsxFTATBgNVBAoMDE9wZW5WUE4t
VEVTVDEhMB8GCSqGSIb3DQEJARYSbWVAbXlob3N0Lm15ZG9tYWluMB4XDTIzMTEw
NzEyMjMzOVoXDTMzMTEwNDEyMjMzOVowajELMAkGA1UEBhMCS0cxCzAJBgNVBAgM
Ak5BMRUwEwYDVQQKDAxPcGVuVlBOLVRFU1QxFDASBgNVBAMMC1Rlc3QtU2VydmVy
MSEwHwYJKoZIhvcNAQkBFhJtZUBteWhvc3QubXlkb21haW4wggEiMA0GCSqGSIb3
DQEBAQUAA4IBDwAwggEKAoIBAQCvk86dhofEirs4b1AWmylw2lq9s0xaA7jhlPU/
Sz8bBep3njRZAZnegeKHOtQFGEAmf6PpglK8MoQyuTxhH2haiQEXIey5M1uWMxaR
Dzavww9oEETq5vkANRNhPeegsUuRMbgRAqCYzf2q51NsMQWHNlbF5IwSltbwxFqn
DZZf9nqVrVjlbYZUderaqv0dDDgZaqYkxiVgc8SphlGv9lJFSPGWFo4Z/z/Oe9GW
9ix1EhaQJ3gnCQp3oNhuZLAJlHyVgXanw759Wgxa5C3SFW0Au4OmrDXcHvf1Z6wv
cAf9lNmx2vSPZGeS8fGocifdXNTxOKt2uE44JtRM2YdMQmPVAgMBAAGjggE+MIIB
OjAJBgNVHRMEAjAAMBEGCWCGSAGG+EIBAQQEAwIGQDAzBglghkgBhvhCAQ0EJhYk
T3BlblNTTCBHZW5lcmF0ZWQgU2VydmVyIENlcnRpZmljYXRlMB0GA1UdDgQWBBQY
ueexPtKHxHgsDdm7fr5os/xqKzCBowYDVR0jBIGbMIGYgBRzsbjWipVrEuB0fMVX
VZiUW6x4XqFqpGgwZjELMAkGA1UEBhMCS0cxCzAJBgNVBAgMAk5BMRAwDgYDVQQH
DAdCSVNIS0VLMRUwEwYDVQQKDAxPcGVuVlBOLVRFU1QxITAfBgkqhkiG9w0BCQEW
Em1lQG15aG9zdC5teWRvbWFpboIUb1C400ZucjRZvAAz3XyuEusnRgYwEwYDVR0l
BAwwCgYIKwYBBQUHAwEwCwYDVR0PBAQDAgWgMA0GCSqGSIb3DQEBCwUAA4ICAQAd
6QS8dyLZcFmq0vRLW4yMbbh9DaoP23URI3I6lTQzY5UW8QRhlY4/Nk23KKby7ciJ
j38FZYMTXULqLB2oeSXsfBlvUfKw0Blq2xSu5GmR2Ed4WtIGzv2P1R14roYuWvTv
2wU9/BKf+3ZgYLwqoIlQ6tgbiapb9Tvnrz/crm69XH5jUi7JbY/ioP5dq7HcCTk7
FKDuiqF9zgCin4q58mdx4UCe18iSj6I45Y+8WwCrki/FIYMFx/96hDmZ5wDLKC5R
uOg+kITy02pns3T95j9TtUoIb+0PwoGa6xMmwRUd8yFROVZ2VYxteWteGUbyGSxH
Ty1TOUW1UG7EGrYOmgSS6Xud1dct8zBdBM4kk3VcNVF353TdlwW9Boqiso5sdOWe
ExB+N7JHcqC+sy/sYQkodrihhSiuMqe1V4Ys2c0m90fMkkh9Bs4w27wj/oicdVB8
wPGWU1Q0twykOmYS6lF/rcdO7ZiPPce6Kc1L6eDOVKOwUdcAJru0hvbQdlGdU8tS
lOA2pp8Qy3mSTBfP8p5mdQaWOMH4fCIbjlMBvK+Gf+AC8RTiy0uU9afE49U5gxgt
qv+CtNoKG11yZg3DpnqKLYnb5+ovKuzrTAossUEcjXzLeGqnxecLer9E3iQCctqI
d0BeE7BVKLUxGvlDeSyh+n2ayHr+wifkRwJAttI9NQ==
-----END CERTIFICATE-----
