Certificate:
    Data:
        Version: 3 (0x2)
        Serial Number: 3 (0x3)
        Signature Algorithm: md5WithRSAEncryption
        Issuer: C=KG, ST=NA, L=BISHKEK, O=OpenVPN-TEST/emailAddress=me@myhost.mydomain
        Validity
            Not Before: Nov 25 14:48:55 2004 GMT
            Not After : Nov 23 14:48:55 2014 GMT
        Subject: C=KG, ST=NA, O=OpenVPN-TEST, CN=Test-Client-Password/emailAddress=me@myhost.mydomain
        Subject Public Key Info:
            Public Key Algorithm: rsaEncryption
            RSA Public Key: (1024 bit)
                Modulus (1024 bit):
                    00:ca:b4:05:67:7b:51:c1:d2:fe:21:57:b1:a5:57:
                    5c:c0:86:38:05:a8:91:cf:e7:a4:bd:7a:76:d8:3b:
                    cf:fe:f3:78:65:24:d6:72:7d:1b:6d:b6:da:04:f2:
                    a8:f6:b4:04:78:d2:24:a7:21:2f:ca:29:46:96:0f:
                    0b:91:31:66:1e:4d:22:9a:5d:05:17:99:9c:a0:7e:
                    e0:2a:be:78:0c:a1:b9:d4:04:c4:ec:f8:61:79:62:
                    b5:52:2d:f5:41:af:db:9f:8c:ab:08:1b:b7:95:b8:
                    c1:f0:29:d3:da:fb:00:3f:8e:5c:27:e3:8d:fa:ee:
                    dc:b4:3b:0b:8b:e0:ab:c1:c1
                Exponent: 65537 (0x10001)
        X509v3 extensions:
            X509v3 Basic Constraints: 
                CA:FALSE
            Netscape Comment: 
                OpenSSL Generated Certificate
            X509v3 Subject Key Identifier: 
                40:57:F1:8C:9C:86:B2:DA:E0:3F:A7:B8:D7:85:43:45:07:8A:40:73
            X509v3 Authority Key Identifier: 
                keyid:89:A6:60:E3:BA:EA:3E:AF:FC:64:7F:4C:BD:8C:D2:48:8D:E0:CC:46
                DirName:/C=KG/ST=NA/L=BISHKEK/O=OpenVPN-TEST/emailAddress=me@myhost.mydomain
                serial:00

    Signature Algorithm: md5WithRSAEncryption
        a5:79:72:7f:a2:08:28:8e:66:da:e1:d0:be:bb:97:3d:65:9f:
        ab:1e:19:ac:f1:66:44:14:8f:4e:7c:eb:ea:1e:2f:57:ea:44:
        46:4c:b9:56:5b:c0:0c:58:d2:45:87:26:6d:82:de:8c:64:b8:
        8b:22:61:61:c6:68:36:08:9d:5a:fd:2f:e5:21:e1:a2:0c:7f:
        3e:ca:e1:06:ea:9f:81:62:3d:a0:ce:f1:1e:0d:ab:86:89:ed:
        9a:89:34:32:c9:e9:6d:7d:f5:11:c3:5d:7e:a5:f7:f1:a6:83:
        77:1b:94:67:d9:0f:5c:ac:0e:08:4a:88:98:65:49:eb:66:9e:
        2d:28
-----BEGIN CERTIFICATE-----
MIIDPjCCAqegAwIBAgIBAzANBgkqhkiG9w0BAQQFADBmMQswCQYDVQQGEwJLRzEL
MAkGA1UECBMCTkExEDAOBgNVBAcTB0JJU0hLRUsxFTATBgNVBAoTDE9wZW5WUE4t
VEVTVDEhMB8GCSqGSIb3DQEJARYSbWVAbXlob3N0Lm15ZG9tYWluMB4XDTA0MTEy
NTE0NDg1NVoXDTE0MTEyMzE0NDg1NVowczELMAkGA1UEBhMCS0cxCzAJBgNVBAgT
Ak5BMRUwEwYDVQQKEwxPcGVuVlBOLVRFU1QxHTAbBgNVBAMTFFRlc3QtQ2xpZW50
LVBhc3N3b3JkMSEwHwYJKoZIhvcNAQkBFhJtZUBteWhvc3QubXlkb21haW4wgZ8w
DQYJKoZIhvcNAQEBBQADgY0AMIGJAoGBAMq0BWd7UcHS/iFXsaVXXMCGOAWokc/n
pL16dtg7z/7zeGUk1nJ9G2222gTyqPa0BHjSJKchL8opRpYPC5ExZh5NIppdBReZ
nKB+4Cq+eAyhudQExOz4YXlitVIt9UGv25+Mqwgbt5W4wfAp09r7AD+OXCfjjfru
3LQ7C4vgq8HBAgMBAAGjge4wgeswCQYDVR0TBAIwADAsBglghkgBhvhCAQ0EHxYd
T3BlblNTTCBHZW5lcmF0ZWQgQ2VydGlmaWNhdGUwHQYDVR0OBBYEFEBX8YychrLa
4D+nuNeFQ0UHikBzMIGQBgNVHSMEgYgwgYWAFImmYOO66j6v/GR/TL2M0kiN4MxG
oWqkaDBmMQswCQYDVQQGEwJLRzELMAkGA1UECBMCTkExEDAOBgNVBAcTB0JJU0hL
RUsxFTATBgNVBAoTDE9wZW5WUE4tVEVTVDEhMB8GCSqGSIb3DQEJARYSbWVAbXlo
b3N0Lm15ZG9tYWluggEAMA0GCSqGSIb3DQEBBAUAA4GBAKV5cn+iCCiOZtrh0L67
lz1ln6seGazxZkQUj0586+oeL1fqREZMuVZbwAxY0kWHJm2C3oxkuIsiYWHGaDYI
nVr9L+Uh4aIMfz7K4Qbqn4FiPaDO8R4Nq4aJ7ZqJNDLJ6W199RHDXX6l9/Gmg3cb
lGfZD1ysDghKiJhlSetmni0o
-----END CERTIFICATE-----
